Certificate:
    Data:
        Version: 3 (0x2)
        Serial Number: 4 (0x4)
    Signature Algorithm: sha256WithRSAEncryption
        Issuer: C=US, ST=CA, L=Fremont, O=CloudAwan, OU=RD, CN=Kubernetes/emailAddress=cloudycchang@gmail.com
        Validity
            Not Before: Jul 28 19:59:19 2015 GMT
            Not After : Jul 27 19:59:19 2016 GMT
        Subject: C=US, ST=CA, O=CloudAwan, OU=RD, CN=private-registry/emailAddress=cloudycchang@gmail.com
        Subject Public Key Info:
            Public Key Algorithm: rsaEncryption
                Public-Key: (2048 bit)
                Modulus:
                    00:cc:f8:7e:bc:06:7c:74:4b:bd:9a:b5:a6:a3:25:
                    41:2d:8d:e8:21:bb:5e:69:a2:0b:6c:b9:b1:ec:8e:
                    6e:55:d0:45:3a:90:b7:86:0a:5b:35:cb:3f:91:db:
                    e1:48:d3:e4:e2:f1:7a:67:9b:be:c1:f3:65:2a:de:
                    cd:49:d6:f9:43:6f:69:dc:73:dc:96:bd:e1:88:8d:
                    9c:86:6e:67:cb:ee:95:a7:fb:15:c4:92:ff:4f:1d:
                    76:26:08:c2:45:71:80:3d:b1:7c:63:b9:96:d7:94:
                    1f:21:29:a3:f9:eb:39:5b:7f:64:32:df:88:6f:93:
                    13:66:0d:ca:67:4a:6c:be:36:fe:7a:0f:4e:be:17:
                    31:63:22:f3:32:df:5f:6b:d8:ac:99:df:8a:10:77:
                    72:88:20:87:a2:05:83:33:f9:1e:fd:e9:c8:0f:e5:
                    ee:9a:7e:1b:a3:da:61:ba:27:86:ee:bb:36:b6:04:
                    b0:43:29:7e:74:f9:57:6c:49:69:ce:9e:ea:83:79:
                    f7:fa:e5:cf:2e:55:af:b8:b3:9f:42:45:09:b7:29:
                    71:5a:45:65:01:d5:a2:6d:4a:22:ff:e2:54:b3:1d:
                    15:e9:04:d2:fc:11:1a:c6:32:62:d5:05:94:e3:15:
                    e1:a1:7d:b4:e8:0e:bc:4e:18:3b:fa:af:1c:83:e8:
                    8b:bf
                Exponent: 65537 (0x10001)
        X509v3 extensions:
            X509v3 Basic Constraints: 
                CA:FALSE
            Netscape Comment: 
                OpenSSL Generated Certificate
            X509v3 Subject Key Identifier: 
                67:C7:91:36:87:B2:FB:9E:17:5D:27:98:3E:1D:60:CA:E1:4B:23:4C
            X509v3 Authority Key Identifier: 
                keyid:88:EB:DA:2D:92:FA:C1:24:9D:45:CD:3F:50:71:7B:E8:B0:FD:3F:A9

    Signature Algorithm: sha256WithRSAEncryption
         24:c3:db:93:dd:f0:d0:49:eb:3b:4a:ee:43:88:4c:ae:65:82:
         13:ff:2e:ab:97:ce:3f:f3:05:90:a5:4f:d7:1d:ea:82:a8:30:
         14:8b:c8:7d:b2:99:b0:e7:4f:05:95:6d:28:25:98:2f:43:75:
         f7:3c:b7:e0:1c:94:36:6e:b8:b1:5e:f8:86:98:58:8a:0e:9c:
         b7:82:7c:e0:10:9c:f5:4a:53:83:52:bb:d7:36:87:c0:0f:51:
         22:d4:76:c5:40:a2:81:d6:25:df:a4:c2:a7:b8:a0:9e:9a:5f:
         77:97:04:77:6a:7b:5f:16:54:bf:c6:a7:bb:2a:c8:da:64:4e:
         b0:bb:ea:05:39:1b:fb:55:28:fe:c5:00:6b:67:bb:02:ff:27:
         1a:dd:96:a8:2d:ef:71:a1:14:f1:cf:05:c7:0f:3d:51:53:f4:
         fa:a0:53:51:3c:e0:b1:4c:39:7d:23:be:ee:42:3d:e4:28:54:
         4b:56:3f:51:43:2a:16:dc:18:26:96:a1:1f:68:51:d1:68:68:
         f5:b0:fa:42:7c:b1:1a:37:95:96:7b:45:a4:cd:1c:1e:15:9c:
         3f:b0:25:cb:64:dc:79:d4:d1:e1:44:36:52:db:3f:c7:35:91:
         ff:65:25:05:3d:00:9a:4b:96:0a:a9:3e:e5:cd:b9:c0:23:ab:
         43:f9:a6:5b
-----BEGIN CERTIFICATE-----
MIID/TCCAuWgAwIBAgIBBDANBgkqhkiG9w0BAQsFADCBiTELMAkGA1UEBhMCVVMx
CzAJBgNVBAgMAkNBMRAwDgYDVQQHDAdGcmVtb250MRIwEAYDVQQKDAlDbG91ZEF3
YW4xCzAJBgNVBAsMAlJEMRMwEQYDVQQDDApLdWJlcm5ldGVzMSUwIwYJKoZIhvcN
AQkBFhZjbG91ZHljY2hhbmdAZ21haWwuY29tMB4XDTE1MDcyODE5NTkxOVoXDTE2
MDcyNzE5NTkxOVowfTELMAkGA1UEBhMCVVMxCzAJBgNVBAgMAkNBMRIwEAYDVQQK
DAlDbG91ZEF3YW4xCzAJBgNVBAsMAlJEMRkwFwYDVQQDDBBwcml2YXRlLXJlZ2lz
dHJ5MSUwIwYJKoZIhvcNAQkBFhZjbG91ZHljY2hhbmdAZ21haWwuY29tMIIBIjAN
BgkqhkiG9w0BAQEFAAOCAQ8AMIIBCgKCAQEAzPh+vAZ8dEu9mrWmoyVBLY3oIbte
aaILbLmx7I5uVdBFOpC3hgpbNcs/kdvhSNPk4vF6Z5u+wfNlKt7NSdb5Q29p3HPc
lr3hiI2chm5ny+6Vp/sVxJL/Tx12JgjCRXGAPbF8Y7mW15QfISmj+es5W39kMt+I
b5MTZg3KZ0psvjb+eg9OvhcxYyLzMt9fa9ismd+KEHdyiCCHogWDM/ke/enID+Xu
mn4bo9phuieG7rs2tgSwQyl+dPlXbElpzp7qg3n3+uXPLlWvuLOfQkUJtylxWkVl
AdWibUoi/+JUsx0V6QTS/BEaxjJi1QWU4xXhoX206A68Thg7+q8cg+iLvwIDAQAB
o3sweTAJBgNVHRMEAjAAMCwGCWCGSAGG+EIBDQQfFh1PcGVuU1NMIEdlbmVyYXRl
ZCBDZXJ0aWZpY2F0ZTAdBgNVHQ4EFgQUZ8eRNoey+54XXSeYPh1gyuFLI0wwHwYD
VR0jBBgwFoAUiOvaLZL6wSSdRc0/UHF76LD9P6kwDQYJKoZIhvcNAQELBQADggEB
ACTD25Pd8NBJ6ztK7kOITK5lghP/LquXzj/zBZClT9cd6oKoMBSLyH2ymbDnTwWV
bSglmC9Ddfc8t+AclDZuuLFe+IaYWIoOnLeCfOAQnPVKU4NSu9c2h8APUSLUdsVA
ooHWJd+kwqe4oJ6aX3eXBHdqe18WVL/Gp7sqyNpkTrC76gU5G/tVKP7FAGtnuwL/
Jxrdlqgt73GhFPHPBccPPVFT9PqgU1E84LFMOX0jvu5CPeQoVEtWP1FDKhbcGCaW
oR9oUdFoaPWw+kJ8sRo3lZZ7RaTNHB4VnD+wJctk3HnU0eFENlLbP8c1kf9lJQU9
AJpLlgqpPuXNucAjq0P5pls=
-----END CERTIFICATE-----
